; Function Attrs: nounwind uwtable
define internal void @k_self(ptr noundef captures(none) %0, i8 noundef zeroext %1, i8 noundef signext %2) #0 {
  %.not = icmp eq i8 %2, 0
  br i1 %.not, label %4, label %46

4:                                                ; preds = %3
  %5 = getelementptr inbounds nuw i8, ptr %0, i64 48
  %6 = load i32, ptr %5, align 8
  %.not9 = icmp eq i32 %6, 0
  br i1 %.not9, label %38, label %7

7:                                                ; preds = %4
  %8 = zext i8 %1 to i32
  store i32 0, ptr %5, align 8
  %9 = load i32, ptr %0, align 8
  %10 = icmp sgt i32 %9, -1
  br i1 %10, label %11, label %15

11:                                               ; preds = %7
  %12 = getelementptr inbounds nuw i8, ptr %0, i64 40
  %13 = load ptr, ptr %12, align 8
  %14 = tail call i32 (i32, i64, ...) @ioctl(i32 noundef %9, i64 noundef 19274, ptr noundef %13) #12
  br label %15

15:                                               ; preds = %11, %7
  %16 = getelementptr inbounds nuw i8, ptr %0, i64 40
  %17 = load ptr, ptr %16, align 8
  %18 = load i32, ptr %17, align 4
  %.not.i = icmp eq i32 %18, 0
  br i1 %.not.i, label %._crit_edge.i, label %.lr.ph.i

.lr.ph.i:                                         ; preds = %15
  %19 = getelementptr inbounds nuw i8, ptr %17, i64 4
  %wide.trip.count.i = zext i32 %18 to i64
  br label %20

20:                                               ; preds = %33, %.lr.ph.i
  %indvars.iv.i = phi i64 [ 0, %.lr.ph.i ], [ %indvars.iv.next.i, %33 ]
  %21 = getelementptr inbounds nuw [256 x %struct.kbdiacr], ptr %19, i64 0, i64 %indvars.iv.i
  %22 = load i8, ptr %21, align 1
  %23 = zext i8 %22 to i32
  %24 = icmp eq i32 %6, %23
  br i1 %24, label %25, label %33

25:                                               ; preds = %20
  %26 = getelementptr inbounds nuw i8, ptr %21, i64 1
  %27 = load i8, ptr %26, align 1
  %28 = icmp eq i8 %1, %27
  br i1 %28, label %29, label %33

29:                                               ; preds = %25
  %30 = getelementptr inbounds nuw i8, ptr %21, i64 2
  %31 = load i8, ptr %30, align 1
  %32 = zext i8 %31 to i32
  br label %handle_diacr.exit

33:                                               ; preds = %25, %20
  %indvars.iv.next.i = add nuw nsw i64 %indvars.iv.i, 1
  %exitcond.not.i = icmp eq i64 %indvars.iv.next.i, %wide.trip.count.i
  br i1 %exitcond.not.i, label %._crit_edge.i, label %20, !llvm.loop !10

._crit_edge.i:                                    ; preds = %33, %15
  %34 = icmp eq i8 %1, 32
  %35 = icmp eq i32 %6, %8
  %or.cond.i = or i1 %34, %35
  br i1 %or.cond.i, label %handle_diacr.exit, label %36

36:                                               ; preds = %._crit_edge.i
  tail call fastcc void @put_utf8(ptr noundef nonnull %0, i32 noundef %6)
  br label %handle_diacr.exit

handle_diacr.exit:                                ; preds = %29, %._crit_edge.i, %36
  %.023.i = phi i32 [ %32, %29 ], [ %8, %36 ], [ %6, %._crit_edge.i ]
  %37 = trunc i32 %.023.i to i8
  br label %38

38:                                               ; preds = %handle_diacr.exit, %4
  %.0 = phi i8 [ %37, %handle_diacr.exit ], [ %1, %4 ]
  %39 = getelementptr inbounds nuw i8, ptr %0, i64 33
  %40 = load i8, ptr %39, align 1, !range !3, !noundef !4
  %41 = trunc nuw i8 %40 to i1
  br i1 %41, label %42, label %44

42:                                               ; preds = %38
  store i8 0, ptr %39, align 1
  %43 = zext i8 %.0 to i32
  store i32 %43, ptr %5, align 8
  br label %46

44:                                               ; preds = %38
  %45 = zext i8 %.0 to i32
  tail call fastcc void @put_utf8(ptr noundef nonnull %0, i32 noundef %45)
  br label %46

46:                                               ; preds = %3, %44, %42
  ret void
}